target datalayout = "e-m:e-p270:32:32-p271:32:32-p272:64:64-i64:64-i128:128-f80:128-n8:16:32:64-S128"
target triple = "x86_64-pc-linux-gnu"

%"class.cv::Matx" = type { [9 x double] }

; Function Attrs: inlinehint mustprogress nounwind uwtable
define linkonce_odr hidden noundef nonnull align 8 dereferenceable(8) ptr @_ZNK2cv4MatxIdLi3ELi3EEclEii(ptr noundef nonnull align 8 dereferenceable(72) %0, i32 noundef %1, i32 noundef %2) #7 comdat align 2 {
  %4 = alloca ptr, align 8
  %5 = alloca i32, align 4
  %6 = alloca i32, align 4
  store ptr %0, ptr %4, align 8, !tbaa !8
  store i32 %1, ptr %5, align 4, !tbaa !10
  store i32 %2, ptr %6, align 4, !tbaa !10
  %7 = load ptr, ptr %4, align 8
  %8 = getelementptr inbounds nuw %"class.cv::Matx", ptr %7, i32 0, i32 0
  %9 = load i32, ptr %5, align 4, !tbaa !10
  %10 = mul nsw i32 %9, 3
  %11 = load i32, ptr %6, align 4, !tbaa !10
  %12 = add nsw i32 %10, %11
  %13 = sext i32 %12 to i64
  %14 = getelementptr inbounds [9 x double], ptr %8, i64 0, i64 %13
  ret ptr %14
}

; Function Attrs: mustprogress uwtable
define hidden noundef double @_ZN2cv23HomographyDecomposition21HomographyDecompInria15oppositeOfMinorERKNS_4MatxIdLi3ELi3EEEii(ptr noundef nonnull align 8 dereferenceable(80) %0, ptr noundef nonnull align 8 dereferenceable(72) %1, i32 noundef %2, i32 noundef %3) #4 align 2 {
  %5 = alloca ptr, align 8
  %6 = alloca ptr, align 8
  %7 = alloca i32, align 4
  %8 = alloca i32, align 4
  %9 = alloca i32, align 4
  %10 = alloca i32, align 4
  %11 = alloca i32, align 4
  %12 = alloca i32, align 4
  store ptr %0, ptr %5, align 8, !tbaa !82
  store ptr %1, ptr %6, align 8, !tbaa !8
  store i32 %2, ptr %7, align 4, !tbaa !10
  store i32 %3, ptr %8, align 4, !tbaa !10
  call void @llvm.lifetime.start.p0(i64 4, ptr %9) #3
  %13 = load i32, ptr %8, align 4, !tbaa !10
  %14 = icmp eq i32 %13, 0
  %15 = select i1 %14, i32 1, i32 0
  store i32 %15, ptr %9, align 4, !tbaa !10
  call void @llvm.lifetime.start.p0(i64 4, ptr %10) #3
  %16 = load i32, ptr %8, align 4, !tbaa !10
  %17 = icmp eq i32 %16, 2
  %18 = select i1 %17, i32 1, i32 2
  store i32 %18, ptr %10, align 4, !tbaa !10
  call void @llvm.lifetime.start.p0(i64 4, ptr %11) #3
  %19 = load i32, ptr %7, align 4, !tbaa !10
  %20 = icmp eq i32 %19, 0
  %21 = select i1 %20, i32 1, i32 0
  store i32 %21, ptr %11, align 4, !tbaa !10
  call void @llvm.lifetime.start.p0(i64 4, ptr %12) #3
  %22 = load i32, ptr %7, align 4, !tbaa !10
  %23 = icmp eq i32 %22, 2
  %24 = select i1 %23, i32 1, i32 2
  store i32 %24, ptr %12, align 4, !tbaa !10
  %25 = load ptr, ptr %6, align 8, !tbaa !8
  %26 = load i32, ptr %11, align 4, !tbaa !10
  %27 = load i32, ptr %10, align 4, !tbaa !10
  %28 = call noundef nonnull align 8 dereferenceable(8) ptr @_ZNK2cv4MatxIdLi3ELi3EEclEii(ptr noundef nonnull align 8 dereferenceable(72) %25, i32 noundef %26, i32 noundef %27)
  %29 = load double, ptr %28, align 8, !tbaa !20
  %30 = load ptr, ptr %6, align 8, !tbaa !8
  %31 = load i32, ptr %12, align 4, !tbaa !10
  %32 = load i32, ptr %9, align 4, !tbaa !10
  %33 = call noundef nonnull align 8 dereferenceable(8) ptr @_ZNK2cv4MatxIdLi3ELi3EEclEii(ptr noundef nonnull align 8 dereferenceable(72) %30, i32 noundef %31, i32 noundef %32)
  %34 = load double, ptr %33, align 8, !tbaa !20
  %35 = load ptr, ptr %6, align 8, !tbaa !8
  %36 = load i32, ptr %11, align 4, !tbaa !10
  %37 = load i32, ptr %9, align 4, !tbaa !10
  %38 = call noundef nonnull align 8 dereferenceable(8) ptr @_ZNK2cv4MatxIdLi3ELi3EEclEii(ptr noundef nonnull align 8 dereferenceable(72) %35, i32 noundef %36, i32 noundef %37)
  %39 = load double, ptr %38, align 8, !tbaa !20
  %40 = load ptr, ptr %6, align 8, !tbaa !8
  %41 = load i32, ptr %12, align 4, !tbaa !10
  %42 = load i32, ptr %10, align 4, !tbaa !10
  %43 = call noundef nonnull align 8 dereferenceable(8) ptr @_ZNK2cv4MatxIdLi3ELi3EEclEii(ptr noundef nonnull align 8 dereferenceable(72) %40, i32 noundef %41, i32 noundef %42)
  %44 = load double, ptr %43, align 8, !tbaa !20
  %45 = fmul double %39, %44
  %46 = fneg double %45
  %47 = call double @llvm.fmuladd.f64(double %29, double %34, double %46)
  call void @llvm.lifetime.end.p0(i64 4, ptr %12) #3
  call void @llvm.lifetime.end.p0(i64 4, ptr %11) #3
  call void @llvm.lifetime.end.p0(i64 4, ptr %10) #3
  call void @llvm.lifetime.end.p0(i64 4, ptr %9) #3
  ret double %47
}