; Function Attrs: mustprogress nofree norecurse nosync nounwind willreturn memory(argmem: read) uwtable
define hidden noundef double @_ZN2cv23HomographyDecomposition21HomographyDecompInria15oppositeOfMinorERKNS_4MatxIdLi3ELi3EEEii(ptr noundef nonnull readnone align 8 captures(none) dereferenceable(80) %0, ptr noundef nonnull readonly align 8 captures(none) dereferenceable(72) %1, i32 noundef %2, i32 noundef %3) local_unnamed_addr #11 align 2 {
  %5 = icmp eq i32 %3, 0
  %6 = zext i1 %5 to i32
  %7 = icmp eq i32 %3, 2
  %8 = select i1 %7, i32 1, i32 2
  %9 = icmp eq i32 %2, 0
  %10 = icmp eq i32 %2, 2
  %11 = select i1 %9, i32 3, i32 0
  %12 = add nuw nsw i32 %8, %11
  %13 = zext nneg i32 %12 to i64
  %14 = getelementptr inbounds nuw [9 x double], ptr %1, i64 0, i64 %13
  %15 = load double, ptr %14, align 8, !tbaa !6
  %16 = select i1 %10, i32 3, i32 6
  %17 = add nuw nsw i32 %16, %6
  %18 = zext nneg i32 %17 to i64
  %19 = getelementptr inbounds nuw [9 x double], ptr %1, i64 0, i64 %18
  %20 = load double, ptr %19, align 8, !tbaa !6
  %21 = add nuw nsw i32 %11, %6
  %22 = zext nneg i32 %21 to i64
  %23 = getelementptr inbounds nuw [9 x double], ptr %1, i64 0, i64 %22
  %24 = load double, ptr %23, align 8, !tbaa !6
  %25 = add nuw nsw i32 %8, %16
  %26 = zext nneg i32 %25 to i64
  %27 = getelementptr inbounds nuw [9 x double], ptr %1, i64 0, i64 %26
  %28 = load double, ptr %27, align 8, !tbaa !6
  %29 = fneg double %28
  %30 = fmul double %24, %29
  %31 = tail call double @llvm.fmuladd.f64(double %15, double %20, double %30)
  ret double %31
}